; Function Attrs: null_pointer_is_valid sspstrong uwtable
define internal i32 @dissect_FMP_GetVolumeInfo_reply(ptr noundef %0, ptr readnone captures(none) %1, ptr noundef %2, ptr readnone captures(none) %3) #0 {
  %5 = alloca i32, align 4
  call void @llvm.lifetime.start.p0(i64 4, ptr nonnull %5) #3
  %6 = call fastcc i32 @dissect_fmp_status(ptr noundef %0, i32 noundef 0, ptr noundef %2, ptr noundef nonnull %5)
  %7 = load i32, ptr %5, align 4
  %8 = icmp eq i32 %7, 0
  br i1 %8, label %9, label %11

9:                                                ; preds = %4
  %10 = tail call fastcc i32 @dissect_fmp_Hiervolume(ptr noundef %0, i32 noundef %6, ptr noundef %2)
  br label %11

11:                                               ; preds = %9, %4
  %.0 = phi i32 [ %10, %9 ], [ %6, %4 ]
  call void @llvm.lifetime.end.p0(i64 4, ptr nonnull %5) #3
  ret i32 %.0
}